target datalayout = "e-m:e-p270:32:32-p271:32:32-p272:64:64-i64:64-i128:128-f80:128-n8:16:32:64-S128"
target triple = "x86_64-pc-linux-gnu"

; Function Attrs: nounwind uwtable
define void @rgb12to15(ptr noundef %0, ptr noundef %1, i32 noundef %2) #0 {
  %4 = alloca ptr, align 8
  %5 = alloca ptr, align 8
  %6 = alloca i32, align 4
  %7 = alloca i16, align 2
  %8 = alloca i16, align 2
  %9 = alloca i16, align 2
  %10 = alloca i16, align 2
  %11 = alloca ptr, align 8
  %12 = alloca ptr, align 8
  %13 = alloca ptr, align 8
  store ptr %0, ptr %4, align 8, !tbaa !4
  store ptr %1, ptr %5, align 8, !tbaa !4
  store i32 %2, ptr %6, align 4, !tbaa !9
  call void @llvm.lifetime.start.p0(i64 2, ptr %7) #5
  call void @llvm.lifetime.start.p0(i64 2, ptr %8) #5
  call void @llvm.lifetime.start.p0(i64 2, ptr %9) #5
  call void @llvm.lifetime.start.p0(i64 2, ptr %10) #5
  call void @llvm.lifetime.start.p0(i64 8, ptr %11) #5
  %14 = load ptr, ptr %5, align 8, !tbaa !4
  store ptr %14, ptr %11, align 8, !tbaa !20
  call void @llvm.lifetime.start.p0(i64 8, ptr %12) #5
  %15 = load ptr, ptr %4, align 8, !tbaa !4
  store ptr %15, ptr %12, align 8, !tbaa !20
  call void @llvm.lifetime.start.p0(i64 8, ptr %13) #5
  %16 = load ptr, ptr %12, align 8, !tbaa !20
  %17 = load i32, ptr %6, align 4, !tbaa !9
  %18 = sdiv i32 %17, 2
  %19 = sext i32 %18 to i64
  %20 = getelementptr inbounds i16, ptr %16, i64 %19
  store ptr %20, ptr %13, align 8, !tbaa !20
  br label %21

21:                                               ; preds = %25, %3
  %22 = load ptr, ptr %12, align 8, !tbaa !20
  %23 = load ptr, ptr %13, align 8, !tbaa !20
  %24 = icmp ult ptr %22, %23
  br i1 %24, label %25, label %78

25:                                               ; preds = %21
  %26 = load ptr, ptr %12, align 8, !tbaa !20
  %27 = getelementptr inbounds nuw i16, ptr %26, i32 1
  store ptr %27, ptr %12, align 8, !tbaa !20
  %28 = load i16, ptr %26, align 2, !tbaa !22
  store i16 %28, ptr %7, align 2, !tbaa !22
  %29 = load i16, ptr %7, align 2, !tbaa !22
  %30 = zext i16 %29 to i32
  %31 = and i32 %30, 3840
  %32 = trunc i32 %31 to i16
  store i16 %32, ptr %8, align 2, !tbaa !22
  %33 = load i16, ptr %7, align 2, !tbaa !22
  %34 = zext i16 %33 to i32
  %35 = and i32 %34, 240
  %36 = trunc i32 %35 to i16
  store i16 %36, ptr %9, align 2, !tbaa !22
  %37 = load i16, ptr %7, align 2, !tbaa !22
  %38 = zext i16 %37 to i32
  %39 = and i32 %38, 15
  %40 = trunc i32 %39 to i16
  store i16 %40, ptr %10, align 2, !tbaa !22
  %41 = load i16, ptr %8, align 2, !tbaa !22
  %42 = zext i16 %41 to i32
  %43 = shl i32 %42, 3
  %44 = load i16, ptr %8, align 2, !tbaa !22
  %45 = zext i16 %44 to i32
  %46 = and i32 %45, 2048
  %47 = ashr i32 %46, 1
  %48 = or i32 %43, %47
  %49 = trunc i32 %48 to i16
  store i16 %49, ptr %8, align 2, !tbaa !22
  %50 = load i16, ptr %9, align 2, !tbaa !22
  %51 = zext i16 %50 to i32
  %52 = shl i32 %51, 2
  %53 = load i16, ptr %9, align 2, !tbaa !22
  %54 = zext i16 %53 to i32
  %55 = and i32 %54, 128
  %56 = ashr i32 %55, 2
  %57 = or i32 %52, %56
  %58 = trunc i32 %57 to i16
  store i16 %58, ptr %9, align 2, !tbaa !22
  %59 = load i16, ptr %10, align 2, !tbaa !22
  %60 = zext i16 %59 to i32
  %61 = shl i32 %60, 1
  %62 = load i16, ptr %10, align 2, !tbaa !22
  %63 = zext i16 %62 to i32
  %64 = ashr i32 %63, 3
  %65 = or i32 %61, %64
  %66 = trunc i32 %65 to i16
  store i16 %66, ptr %10, align 2, !tbaa !22
  %67 = load i16, ptr %8, align 2, !tbaa !22
  %68 = zext i16 %67 to i32
  %69 = load i16, ptr %9, align 2, !tbaa !22
  %70 = zext i16 %69 to i32
  %71 = or i32 %68, %70
  %72 = load i16, ptr %10, align 2, !tbaa !22
  %73 = zext i16 %72 to i32
  %74 = or i32 %71, %73
  %75 = trunc i32 %74 to i16
  %76 = load ptr, ptr %11, align 8, !tbaa !20
  %77 = getelementptr inbounds nuw i16, ptr %76, i32 1
  store ptr %77, ptr %11, align 8, !tbaa !20
  store i16 %75, ptr %76, align 2, !tbaa !22
  br label %21, !llvm.loop !25

78:                                               ; preds = %21
  call void @llvm.lifetime.end.p0(i64 8, ptr %13) #5
  call void @llvm.lifetime.end.p0(i64 8, ptr %12) #5
  call void @llvm.lifetime.end.p0(i64 8, ptr %11) #5
  call void @llvm.lifetime.end.p0(i64 2, ptr %10) #5
  call void @llvm.lifetime.end.p0(i64 2, ptr %9) #5
  call void @llvm.lifetime.end.p0(i64 2, ptr %8) #5
  call void @llvm.lifetime.end.p0(i64 2, ptr %7) #5
  ret void
}