; Function Attrs: nofree norecurse nosync nounwind memory(argmem: readwrite) uwtable
define void @rgb12to15(ptr noundef readonly captures(address) %0, ptr noundef writeonly captures(none) %1, i32 noundef %2) local_unnamed_addr #0 {
  %4 = sdiv i32 %2, 2
  %5 = sext i32 %4 to i64
  %6 = getelementptr inbounds i16, ptr %0, i64 %5
  %7 = icmp sgt i32 %2, 1
  br i1 %7, label %.lr.ph, label %._crit_edge

.lr.ph:                                           ; preds = %3, %.lr.ph
  %.021 = phi ptr [ %26, %.lr.ph ], [ %1, %3 ]
  %.01920 = phi ptr [ %8, %.lr.ph ], [ %0, %3 ]
  %8 = getelementptr inbounds nuw i8, ptr %.01920, i64 2
  %9 = load i16, ptr %.01920, align 2, !tbaa !16
  %10 = and i16 %9, 15
  %11 = shl i16 %9, 3
  %12 = and i16 %11, 30720
  %13 = lshr i16 %9, 1
  %14 = and i16 %13, 1024
  %15 = shl i16 %9, 2
  %16 = and i16 %15, 960
  %17 = lshr i16 %9, 2
  %18 = and i16 %17, 32
  %19 = shl nuw nsw i16 %10, 1
  %20 = lshr i16 %10, 3
  %21 = or disjoint i16 %19, %20
  %22 = or disjoint i16 %21, %18
  %23 = or disjoint i16 %22, %16
  %24 = or disjoint i16 %23, %14
  %25 = or disjoint i16 %24, %12
  %26 = getelementptr inbounds nuw i8, ptr %.021, i64 2
  store i16 %25, ptr %.021, align 2, !tbaa !16
  %27 = icmp ult ptr %8, %6
  br i1 %27, label %.lr.ph, label %._crit_edge, !llvm.loop !19

._crit_edge:                                      ; preds = %.lr.ph, %3
  ret void
}